target datalayout = "e-m:e-p270:32:32-p271:32:32-p272:64:64-i64:64-i128:128-f80:128-n8:16:32:64-S128"
target triple = "x86_64-pc-linux-gnu"

@.str = private unnamed_addr constant [42 x i8] c"Unable to allocate memory for extradata!\0A\00", align 1
@start_sequence = internal constant [4 x i8] c"\00\00\00\01", align 1

; Function Attrs: nounwind uwtable
define i32 @ff_h264_parse_sprop_parameter_sets(ptr noundef %0, ptr noundef %1, ptr noundef %2, ptr noundef %3) #0 {
  %5 = alloca i32, align 4
  %6 = alloca ptr, align 8
  %7 = alloca ptr, align 8
  %8 = alloca ptr, align 8
  %9 = alloca ptr, align 8
  %10 = alloca [1024 x i8], align 16
  %11 = alloca [1024 x i8], align 16
  %12 = alloca i32, align 4
  %13 = alloca ptr, align 8
  %14 = alloca ptr, align 8
  %15 = alloca i32, align 4
  store ptr %0, ptr %6, align 8, !tbaa !4
  store ptr %1, ptr %7, align 8, !tbaa !9
  store ptr %2, ptr %8, align 8, !tbaa !12
  store ptr %3, ptr %9, align 8, !tbaa !14
  call void @llvm.lifetime.start.p0(i64 1024, ptr %10) #9
  call void @llvm.lifetime.start.p0(i64 1024, ptr %11) #9
  call void @llvm.lifetime.start.p0(i64 4, ptr %12) #9
  br label %16

16:                                               ; preds = %119, %4
  %17 = load ptr, ptr %9, align 8, !tbaa !14
  %18 = load i8, ptr %17, align 1, !tbaa !16
  %19 = icmp ne i8 %18, 0
  br i1 %19, label %20, label %120

20:                                               ; preds = %16
  call void @llvm.lifetime.start.p0(i64 8, ptr %13) #9
  %21 = getelementptr inbounds [1024 x i8], ptr %10, i64 0, i64 0
  store ptr %21, ptr %13, align 8, !tbaa !14
  br label %22

22:                                               ; preds = %41, %20
  %23 = load ptr, ptr %9, align 8, !tbaa !14
  %24 = load i8, ptr %23, align 1, !tbaa !16
  %25 = sext i8 %24 to i32
  %26 = icmp ne i32 %25, 0
  br i1 %26, label %27, label %39

27:                                               ; preds = %22
  %28 = load ptr, ptr %9, align 8, !tbaa !14
  %29 = load i8, ptr %28, align 1, !tbaa !16
  %30 = sext i8 %29 to i32
  %31 = icmp ne i32 %30, 44
  br i1 %31, label %32, label %39

32:                                               ; preds = %27
  %33 = load ptr, ptr %13, align 8, !tbaa !14
  %34 = getelementptr inbounds [1024 x i8], ptr %10, i64 0, i64 0
  %35 = ptrtoint ptr %33 to i64
  %36 = ptrtoint ptr %34 to i64
  %37 = sub i64 %35, %36
  %38 = icmp ult i64 %37, 1023
  br label %39

39:                                               ; preds = %32, %27, %22
  %40 = phi i1 [ false, %27 ], [ false, %22 ], [ %38, %32 ]
  br i1 %40, label %41, label %47

41:                                               ; preds = %39
  %42 = load ptr, ptr %9, align 8, !tbaa !14
  %43 = getelementptr inbounds nuw i8, ptr %42, i32 1
  store ptr %43, ptr %9, align 8, !tbaa !14
  %44 = load i8, ptr %42, align 1, !tbaa !16
  %45 = load ptr, ptr %13, align 8, !tbaa !14
  %46 = getelementptr inbounds nuw i8, ptr %45, i32 1
  store ptr %46, ptr %13, align 8, !tbaa !14
  store i8 %44, ptr %45, align 1, !tbaa !16
  br label %22, !llvm.loop !17

47:                                               ; preds = %39
  %48 = load ptr, ptr %13, align 8, !tbaa !14
  %49 = getelementptr inbounds nuw i8, ptr %48, i32 1
  store ptr %49, ptr %13, align 8, !tbaa !14
  store i8 0, ptr %48, align 1, !tbaa !16
  %50 = load ptr, ptr %9, align 8, !tbaa !14
  %51 = load i8, ptr %50, align 1, !tbaa !16
  %52 = sext i8 %51 to i32
  %53 = icmp eq i32 %52, 44
  br i1 %53, label %54, label %57

54:                                               ; preds = %47
  %55 = load ptr, ptr %9, align 8, !tbaa !14
  %56 = getelementptr inbounds nuw i8, ptr %55, i32 1
  store ptr %56, ptr %9, align 8, !tbaa !14
  br label %57

57:                                               ; preds = %54, %47
  %58 = getelementptr inbounds [1024 x i8], ptr %11, i64 0, i64 0
  %59 = getelementptr inbounds [1024 x i8], ptr %10, i64 0, i64 0
  %60 = call i32 @av_base64_decode(ptr noundef %58, ptr noundef %59, i32 noundef 1024)
  store i32 %60, ptr %12, align 4, !tbaa !19
  %61 = load i32, ptr %12, align 4, !tbaa !19
  %62 = icmp sgt i32 %61, 0
  br i1 %62, label %63, label %116

63:                                               ; preds = %57
  call void @llvm.lifetime.start.p0(i64 8, ptr %14) #9
  %64 = load ptr, ptr %7, align 8, !tbaa !9
  %65 = load ptr, ptr %64, align 8, !tbaa !14
  %66 = load i32, ptr %12, align 4, !tbaa !19
  %67 = sext i32 %66 to i64
  %68 = add i64 %67, 4
  %69 = load ptr, ptr %8, align 8, !tbaa !12
  %70 = load i32, ptr %69, align 4, !tbaa !19
  %71 = sext i32 %70 to i64
  %72 = add i64 %68, %71
  %73 = add i64 %72, 64
  %74 = call ptr @av_realloc(ptr noundef %65, i64 noundef %73)
  store ptr %74, ptr %14, align 8, !tbaa !14
  %75 = load ptr, ptr %14, align 8, !tbaa !14
  %76 = icmp ne ptr %75, null
  br i1 %76, label %79, label %77

77:                                               ; preds = %63
  %78 = load ptr, ptr %6, align 8, !tbaa !4
  call void (ptr, i32, ptr, ...) @av_log(ptr noundef %78, i32 noundef 16, ptr noundef @.str)
  store i32 -12, ptr %5, align 4
  store i32 1, ptr %15, align 4
  br label %113

79:                                               ; preds = %63
  %80 = load ptr, ptr %14, align 8, !tbaa !14
  %81 = load ptr, ptr %7, align 8, !tbaa !9
  store ptr %80, ptr %81, align 8, !tbaa !14
  %82 = load ptr, ptr %14, align 8, !tbaa !14
  %83 = load ptr, ptr %8, align 8, !tbaa !12
  %84 = load i32, ptr %83, align 4, !tbaa !19
  %85 = sext i32 %84 to i64
  %86 = getelementptr inbounds i8, ptr %82, i64 %85
  call void @llvm.memcpy.p0.p0.i64(ptr align 1 %86, ptr align 1 @start_sequence, i64 4, i1 false)
  %87 = load ptr, ptr %14, align 8, !tbaa !14
  %88 = load ptr, ptr %8, align 8, !tbaa !12
  %89 = load i32, ptr %88, align 4, !tbaa !19
  %90 = sext i32 %89 to i64
  %91 = getelementptr inbounds i8, ptr %87, i64 %90
  %92 = getelementptr inbounds nuw i8, ptr %91, i64 4
  %93 = getelementptr inbounds [1024 x i8], ptr %11, i64 0, i64 0
  %94 = load i32, ptr %12, align 4, !tbaa !19
  %95 = sext i32 %94 to i64
  call void @llvm.memcpy.p0.p0.i64(ptr align 1 %92, ptr align 16 %93, i64 %95, i1 false)
  %96 = load ptr, ptr %14, align 8, !tbaa !14
  %97 = load ptr, ptr %8, align 8, !tbaa !12
  %98 = load i32, ptr %97, align 4, !tbaa !19
  %99 = sext i32 %98 to i64
  %100 = getelementptr inbounds i8, ptr %96, i64 %99
  %101 = getelementptr inbounds nuw i8, ptr %100, i64 4
  %102 = load i32, ptr %12, align 4, !tbaa !19
  %103 = sext i32 %102 to i64
  %104 = getelementptr inbounds i8, ptr %101, i64 %103
  call void @llvm.memset.p0.i64(ptr align 1 %104, i8 0, i64 64, i1 false)
  %105 = load i32, ptr %12, align 4, !tbaa !19
  %106 = sext i32 %105 to i64
  %107 = add i64 4, %106
  %108 = load ptr, ptr %8, align 8, !tbaa !12
  %109 = load i32, ptr %108, align 4, !tbaa !19
  %110 = sext i32 %109 to i64
  %111 = add i64 %110, %107
  %112 = trunc i64 %111 to i32
  store i32 %112, ptr %108, align 4, !tbaa !19
  store i32 0, ptr %15, align 4
  br label %113

113:                                              ; preds = %79, %77
  call void @llvm.lifetime.end.p0(i64 8, ptr %14) #9
  %114 = load i32, ptr %15, align 4
  switch i32 %114, label %117 [
    i32 0, label %115
  ]

115:                                              ; preds = %113
  br label %116

116:                                              ; preds = %115, %57
  store i32 0, ptr %15, align 4
  br label %117

117:                                              ; preds = %116, %113
  call void @llvm.lifetime.end.p0(i64 8, ptr %13) #9
  %118 = load i32, ptr %15, align 4
  switch i32 %118, label %121 [
    i32 0, label %119
  ]

119:                                              ; preds = %117
  br label %16, !llvm.loop !21

120:                                              ; preds = %16
  store i32 0, ptr %5, align 4
  store i32 1, ptr %15, align 4
  br label %121

121:                                              ; preds = %120, %117
  call void @llvm.lifetime.end.p0(i64 4, ptr %12) #9
  call void @llvm.lifetime.end.p0(i64 1024, ptr %11) #9
  call void @llvm.lifetime.end.p0(i64 1024, ptr %10) #9
  %122 = load i32, ptr %5, align 4
  ret i32 %122
}