; Function Attrs: nounwind uwtable
define range(i32 -12, 1) i32 @ff_h264_parse_sprop_parameter_sets(ptr noundef %0, ptr noundef captures(none) %1, ptr noundef captures(none) %2, ptr noundef readonly captures(none) %3) local_unnamed_addr #0 {
  %5 = alloca [1024 x i8], align 16
  %6 = alloca [1024 x i8], align 16
  call void @llvm.lifetime.start.p0(i64 1024, ptr nonnull %5) #10
  call void @llvm.lifetime.start.p0(i64 1024, ptr nonnull %6) #10
  %7 = load i8, ptr %3, align 1, !tbaa !4
  %.not44 = icmp eq i8 %7, 0
  br i1 %.not44, label %.loopexit, label %.preheader.lr.ph

.preheader.lr.ph:                                 ; preds = %4
  %8 = ptrtoint ptr %5 to i64
  br label %.preheader

.preheader:                                       ; preds = %.preheader.backedge, %.preheader.lr.ph
  %9 = phi i8 [ %7, %.preheader.lr.ph ], [ %.be, %.preheader.backedge ]
  %.134 = phi ptr [ %3, %.preheader.lr.ph ], [ %.134.be, %.preheader.backedge ]
  %.032 = phi ptr [ %5, %.preheader.lr.ph ], [ %.032.be, %.preheader.backedge ]
  switch i8 %9, label %10 [
    i8 0, label %.critedge
    i8 44, label %.critedge
  ]

10:                                               ; preds = %.preheader
  %11 = ptrtoint ptr %.032 to i64
  %12 = sub i64 %11, %8
  %13 = icmp ult i64 %12, 1023
  br i1 %13, label %14, label %.critedge

14:                                               ; preds = %10
  %15 = getelementptr inbounds nuw i8, ptr %.134, i64 1
  %16 = getelementptr inbounds nuw i8, ptr %.032, i64 1
  store i8 %9, ptr %.032, align 1, !tbaa !4
  %.pr = load i8, ptr %15, align 1, !tbaa !4
  br label %.preheader.backedge

.preheader.backedge:                              ; preds = %14, %.critedge43
  %.be = phi i8 [ %.pr, %14 ], [ %44, %.critedge43 ]
  %.134.be = phi ptr [ %15, %14 ], [ %spec.select, %.critedge43 ]
  %.032.be = phi ptr [ %16, %14 ], [ %5, %.critedge43 ]
  br label %.preheader, !llvm.loop !7

.critedge:                                        ; preds = %.preheader, %.preheader, %10
  store i8 0, ptr %.032, align 1, !tbaa !4
  %17 = load i8, ptr %.134, align 1, !tbaa !4
  %18 = icmp eq i8 %17, 44
  %spec.select.idx = zext i1 %18 to i64
  %spec.select = getelementptr inbounds nuw i8, ptr %.134, i64 %spec.select.idx
  %19 = call i32 @av_base64_decode(ptr noundef nonnull %6, ptr noundef nonnull %5, i32 noundef 1024) #10
  %20 = icmp sgt i32 %19, 0
  br i1 %20, label %21, label %.critedge43

21:                                               ; preds = %.critedge
  %22 = load ptr, ptr %1, align 8, !tbaa !9
  %23 = zext nneg i32 %19 to i64
  %24 = load i32, ptr %2, align 4, !tbaa !12
  %25 = sext i32 %24 to i64
  %.reass = add nuw nsw i64 %23, 68
  %26 = add nsw i64 %.reass, %25
  %27 = call ptr @av_realloc(ptr noundef %22, i64 noundef %26) #10
  %.not41.not = icmp eq ptr %27, null
  br i1 %.not41.not, label %.thread, label %28

.thread:                                          ; preds = %21
  call void (ptr, i32, ptr, ...) @av_log(ptr noundef %0, i32 noundef 16, ptr noundef nonnull @.str) #10
  br label %.loopexit

28:                                               ; preds = %21
  %29 = add nuw i32 %19, 4
  store ptr %27, ptr %1, align 8, !tbaa !9
  %30 = load i32, ptr %2, align 4, !tbaa !12
  %31 = sext i32 %30 to i64
  %32 = getelementptr inbounds i8, ptr %27, i64 %31
  store i32 16777216, ptr %32, align 1
  %33 = load i32, ptr %2, align 4, !tbaa !12
  %34 = sext i32 %33 to i64
  %35 = getelementptr inbounds i8, ptr %27, i64 %34
  %36 = getelementptr inbounds nuw i8, ptr %35, i64 4
  call void @llvm.memcpy.p0.p0.i64(ptr nonnull align 1 %36, ptr nonnull align 16 %6, i64 %23, i1 false)
  %37 = load i32, ptr %2, align 4, !tbaa !12
  %38 = sext i32 %37 to i64
  %39 = getelementptr inbounds i8, ptr %27, i64 %38
  %40 = getelementptr inbounds nuw i8, ptr %39, i64 4
  %41 = getelementptr inbounds nuw i8, ptr %40, i64 %23
  call void @llvm.memset.p0.i64(ptr noundef nonnull align 1 dereferenceable(64) %41, i8 0, i64 64, i1 false)
  %42 = load i32, ptr %2, align 4, !tbaa !12
  %43 = add i32 %42, %29
  store i32 %43, ptr %2, align 4, !tbaa !12
  br label %.critedge43, !llvm.loop !14

.critedge43:                                      ; preds = %28, %.critedge
  %44 = load i8, ptr %spec.select, align 1, !tbaa !4
  %.not = icmp eq i8 %44, 0
  br i1 %.not, label %.loopexit, label %.preheader.backedge

.loopexit:                                        ; preds = %.critedge43, %4, %.thread
  %.4 = phi i32 [ -12, %.thread ], [ 0, %4 ], [ 0, %.critedge43 ]
  call void @llvm.lifetime.end.p0(i64 1024, ptr nonnull %6) #10
  call void @llvm.lifetime.end.p0(i64 1024, ptr nonnull %5) #10
  ret i32 %.4
}